; Function Attrs: mustprogress uwtable
define hidden noundef zeroext i1 @_ZN7datalog12rule_manager9is_forallER11ast_managerP4exprRP10quantifier(ptr noundef nonnull align 8 dereferenceable(976) %m, ptr nocapture noundef readonly %e, ptr nocapture noundef nonnull readnone align 8 dereferenceable(8) %q) local_unnamed_addr #3 align 2 {
entry:
  %m_kind.i.i.i.i.i = getelementptr inbounds i8, ptr %e, i64 4
  %bf.load.i.i.i.i.i = load i32, ptr %m_kind.i.i.i.i.i, align 4
  %bf.clear.i.i.i.i.i = and i32 %bf.load.i.i.i.i.i, 65535
  %cmp.i.i.i.i = icmp eq i32 %bf.clear.i.i.i.i.i, 0
  br i1 %cmp.i.i.i.i, label %land.rhs.i.i.i.i, label %if.end6

land.rhs.i.i.i.i:                                 ; preds = %entry
  %m_decl.i.i.i.i.i = getelementptr inbounds i8, ptr %e, i64 16
  %0 = load ptr, ptr %m_decl.i.i.i.i.i, align 8
  %m_info.i.i.i.i.i.i = getelementptr inbounds i8, ptr %0, i64 24
  %1 = load ptr, ptr %m_info.i.i.i.i.i.i, align 8
  %tobool.not.i.i.i.i.i.i = icmp eq ptr %1, null
  br i1 %tobool.not.i.i.i.i.i.i, label %if.end6, label %_ZNK11ast_manager5is_eqEPK4expr.exit.i.i

_ZNK11ast_manager5is_eqEPK4expr.exit.i.i:         ; preds = %land.rhs.i.i.i.i
  %2 = load i32, ptr %1, align 8
  %cmp.i.i.i.i.i.i.i = icmp eq i32 %2, 0
  %m_kind.i.i.i.i.i.i.i = getelementptr inbounds i8, ptr %1, i64 4
  %3 = load i32, ptr %m_kind.i.i.i.i.i.i.i, align 4
  %cmp2.i.i.i.i.i.i.i = icmp eq i32 %3, 2
  %4 = select i1 %cmp.i.i.i.i.i.i.i, i1 %cmp2.i.i.i.i.i.i.i, i1 false
  br i1 %4, label %land.lhs.true.i.i, label %if.end6

land.lhs.true.i.i:                                ; preds = %_ZNK11ast_manager5is_eqEPK4expr.exit.i.i
  %m_num_args.i.i.i = getelementptr inbounds i8, ptr %e, i64 24
  %5 = load i32, ptr %m_num_args.i.i.i, align 8
  %cmp.i.i = icmp eq i32 %5, 2
  br i1 %cmp.i.i, label %_ZNK11ast_manager6is_iffEPK4exprRPS0_S4_.exit, label %if.end6

_ZNK11ast_manager6is_iffEPK4exprRPS0_S4_.exit:    ; preds = %land.lhs.true.i.i
  %m_args.i.i.i = getelementptr inbounds i8, ptr %e, i64 32
  %6 = load ptr, ptr %m_args.i.i.i, align 8
  %arrayidx.i.i.i = getelementptr inbounds i8, ptr %e, i64 40
  %7 = load ptr, ptr %arrayidx.i.i.i, align 8
  %call2.i = tail call noundef zeroext i1 @_ZNK11ast_manager7is_boolEPK4expr(ptr noundef nonnull align 8 dereferenceable(976) %m, ptr noundef %6)
  br i1 %call2.i, label %if.then, label %if.end6

if.then:                                          ; preds = %_ZNK11ast_manager6is_iffEPK4exprRPS0_S4_.exit
  %m_true.i = getelementptr inbounds i8, ptr %m, i64 856
  %8 = load ptr, ptr %m_true.i, align 8
  %cmp.i = icmp eq ptr %8, %7
  br i1 %cmp.i, label %if.end6, label %if.else

if.else:                                          ; preds = %if.then
  %cmp.i5 = icmp eq ptr %8, %6
  %spec.select = select i1 %cmp.i5, ptr %7, ptr %e
  br label %if.end6

if.end6:                                          ; preds = %land.rhs.i.i.i.i, %entry, %_ZNK11ast_manager5is_eqEPK4expr.exit.i.i, %land.lhs.true.i.i, %if.then, %if.else, %_ZNK11ast_manager6is_iffEPK4exprRPS0_S4_.exit
  %e.addr.0 = phi ptr [ %e, %_ZNK11ast_manager6is_iffEPK4exprRPS0_S4_.exit ], [ %spec.select, %if.else ], [ %6, %if.then ], [ %e, %land.lhs.true.i.i ], [ %e, %_ZNK11ast_manager5is_eqEPK4expr.exit.i.i ], [ %e, %entry ], [ %e, %land.rhs.i.i.i.i ]
  %m_kind.i.i.i = getelementptr inbounds i8, ptr %e.addr.0, i64 4
  %bf.load.i.i.i = load i32, ptr %m_kind.i.i.i, align 4
  %bf.clear.i.i.i = and i32 %bf.load.i.i.i, 65535
  %cmp.i.i6 = icmp eq i32 %bf.clear.i.i.i, 2
  br i1 %cmp.i.i6, label %land.rhs.i7, label %_Z9is_forallPK3ast.exit

land.rhs.i7:                                      ; preds = %if.end6
  %m_kind.i.i = getelementptr inbounds i8, ptr %e.addr.0, i64 16
  %9 = load i32, ptr %m_kind.i.i, align 8
  %cmp.i8 = icmp eq i32 %9, 0
  br label %_Z9is_forallPK3ast.exit

_Z9is_forallPK3ast.exit:                          ; preds = %if.end6, %land.rhs.i7
  %10 = phi i1 [ false, %if.end6 ], [ %cmp.i8, %land.rhs.i7 ]
  ret i1 %10
}